; Function Attrs: mustprogress uwtable
define void @_ZNK8QuantLib24LMMNormalDriftCalculator14computeReducedERKNS_13LMMCurveStateERSt6vectorIdSaIdEE(ptr nocapture noundef nonnull readonly align 8 dereferenceable(208) %this, ptr noundef nonnull align 8 dereferenceable(224) %cs, ptr nocapture noundef nonnull readonly align 8 dereferenceable(24) %drifts) local_unnamed_addr #0 align 2 {
entry:
  %vtable = load ptr, ptr %cs, align 8, !tbaa !55
  %vfn = getelementptr inbounds i8, ptr %vtable, i64 64
  %0 = load ptr, ptr %vfn, align 8
  %call = tail call noundef nonnull align 8 dereferenceable(24) ptr %0(ptr noundef nonnull align 8 dereferenceable(224) %cs)
  tail call void @_ZNK8QuantLib24LMMNormalDriftCalculator14computeReducedERKSt6vectorIdSaIdEERS3_(ptr noundef nonnull align 8 dereferenceable(208) %this, ptr noundef nonnull align 8 dereferenceable(24) %call, ptr noundef nonnull align 8 dereferenceable(24) %drifts)
  ret void
}